target datalayout = "e-m:e-p270:32:32-p271:32:32-p272:64:64-i64:64-i128:128-f80:128-n8:16:32:64-S128"
target triple = "x86_64-pc-linux-gnu"

%struct.plic_context_t = type <{ ptr, i8, i8, [2 x i8], [32 x i32], [32 x i32], [1024 x i8], [32 x i32], [4 x i8] }>
%class.plic_t = type <{ %class.abstract_device_t, %class.abstract_interrupt_controller_t, %"class.std::vector", i32, i32, i32, [1024 x i8], [32 x i32], [4 x i8] }>
%class.abstract_device_t = type { ptr }
%class.abstract_interrupt_controller_t = type { ptr }
%"class.std::vector" = type { %"struct.std::_Vector_base" }
%"struct.std::_Vector_base" = type { %"struct.std::_Vector_base<plic_context_t, std::allocator<plic_context_t>>::_Vector_impl" }
%"struct.std::_Vector_base<plic_context_t, std::allocator<plic_context_t>>::_Vector_impl" = type { %"struct.std::_Vector_base<plic_context_t, std::allocator<plic_context_t>>::_Vector_impl_data" }
%"struct.std::_Vector_base<plic_context_t, std::allocator<plic_context_t>>::_Vector_impl_data" = type { ptr, ptr, ptr }

; Function Attrs: mustprogress nounwind uwtable
define noundef i32 @_ZN6plic_t20context_best_pendingEPK14plic_context_t(ptr noundef nonnull align 8 dereferenceable(1204) %0, ptr noundef %1) #6 align 2 {
  %3 = alloca i32, align 4
  %4 = alloca ptr, align 8
  %5 = alloca ptr, align 8
  %6 = alloca i8, align 1
  %7 = alloca i32, align 4
  %8 = alloca i32, align 4
  %9 = alloca i32, align 4
  %10 = alloca i32, align 4
  %11 = alloca i32, align 4
  store ptr %0, ptr %4, align 8, !tbaa !3
  store ptr %1, ptr %5, align 8, !tbaa !46
  %12 = load ptr, ptr %4, align 8
  call void @llvm.lifetime.start.p0(i64 1, ptr %6) #3
  store i8 0, ptr %6, align 1, !tbaa !55
  call void @llvm.lifetime.start.p0(i64 4, ptr %7) #3
  store i32 0, ptr %7, align 4, !tbaa !10
  call void @llvm.lifetime.start.p0(i64 4, ptr %8) #3
  store i32 0, ptr %8, align 4, !tbaa !10
  br label %13

13:                                               ; preds = %95, %2
  %14 = load i32, ptr %8, align 4, !tbaa !10
  %15 = getelementptr inbounds nuw %class.plic_t, ptr %12, i32 0, i32 4
  %16 = load i32, ptr %15, align 4, !tbaa !23
  %17 = icmp ult i32 %14, %16
  br i1 %17, label %19, label %18

18:                                               ; preds = %13
  store i32 2, ptr %9, align 4
  call void @llvm.lifetime.end.p0(i64 4, ptr %8) #3
  br label %98

19:                                               ; preds = %13
  %20 = load ptr, ptr %5, align 8, !tbaa !46
  %21 = getelementptr inbounds nuw %struct.plic_context_t, ptr %20, i32 0, i32 5
  %22 = load i32, ptr %8, align 4, !tbaa !10
  %23 = zext i32 %22 to i64
  %24 = getelementptr inbounds nuw [32 x i32], ptr %21, i64 0, i64 %23
  %25 = load i32, ptr %24, align 4, !tbaa !10
  %26 = icmp ne i32 %25, 0
  br i1 %26, label %28, label %27

27:                                               ; preds = %19
  br label %95

28:                                               ; preds = %19
  call void @llvm.lifetime.start.p0(i64 4, ptr %10) #3
  store i32 0, ptr %10, align 4, !tbaa !10
  br label %29

29:                                               ; preds = %91, %28
  %30 = load i32, ptr %10, align 4, !tbaa !10
  %31 = icmp ult i32 %30, 32
  br i1 %31, label %33, label %32

32:                                               ; preds = %29
  store i32 5, ptr %9, align 4
  call void @llvm.lifetime.end.p0(i64 4, ptr %10) #3
  br label %94

33:                                               ; preds = %29
  call void @llvm.lifetime.start.p0(i64 4, ptr %11) #3
  %34 = load i32, ptr %8, align 4, !tbaa !10
  %35 = mul i32 %34, 32
  %36 = load i32, ptr %10, align 4, !tbaa !10
  %37 = add i32 %35, %36
  store i32 %37, ptr %11, align 4, !tbaa !10
  %38 = getelementptr inbounds nuw %class.plic_t, ptr %12, i32 0, i32 3
  %39 = load i32, ptr %38, align 8, !tbaa !14
  %40 = load i32, ptr %11, align 4, !tbaa !10
  %41 = icmp ule i32 %39, %40
  br i1 %41, label %64, label %42

42:                                               ; preds = %33
  %43 = load ptr, ptr %5, align 8, !tbaa !46
  %44 = getelementptr inbounds nuw %struct.plic_context_t, ptr %43, i32 0, i32 5
  %45 = load i32, ptr %8, align 4, !tbaa !10
  %46 = zext i32 %45 to i64
  %47 = getelementptr inbounds nuw [32 x i32], ptr %44, i64 0, i64 %46
  %48 = load i32, ptr %47, align 4, !tbaa !10
  %49 = load i32, ptr %10, align 4, !tbaa !10
  %50 = shl i32 1, %49
  %51 = and i32 %48, %50
  %52 = icmp ne i32 %51, 0
  br i1 %52, label %53, label %64

53:                                               ; preds = %42
  %54 = load ptr, ptr %5, align 8, !tbaa !46
  %55 = getelementptr inbounds nuw %struct.plic_context_t, ptr %54, i32 0, i32 7
  %56 = load i32, ptr %8, align 4, !tbaa !10
  %57 = zext i32 %56 to i64
  %58 = getelementptr inbounds nuw [32 x i32], ptr %55, i64 0, i64 %57
  %59 = load i32, ptr %58, align 4, !tbaa !10
  %60 = load i32, ptr %10, align 4, !tbaa !10
  %61 = shl i32 1, %60
  %62 = and i32 %59, %61
  %63 = icmp ne i32 %62, 0
  br i1 %63, label %64, label %65

64:                                               ; preds = %53, %42, %33
  store i32 7, ptr %9, align 4
  br label %88

65:                                               ; preds = %53
  %66 = load i32, ptr %7, align 4, !tbaa !10
  %67 = icmp ne i32 %66, 0
  br i1 %67, label %68, label %79

68:                                               ; preds = %65
  %69 = load i8, ptr %6, align 1, !tbaa !55
  %70 = zext i8 %69 to i32
  %71 = load ptr, ptr %5, align 8, !tbaa !46
  %72 = getelementptr inbounds nuw %struct.plic_context_t, ptr %71, i32 0, i32 6
  %73 = load i32, ptr %11, align 4, !tbaa !10
  %74 = zext i32 %73 to i64
  %75 = getelementptr inbounds nuw [1024 x i8], ptr %72, i64 0, i64 %74
  %76 = load i8, ptr %75, align 1, !tbaa !55
  %77 = zext i8 %76 to i32
  %78 = icmp slt i32 %70, %77
  br i1 %78, label %79, label %87

79:                                               ; preds = %68, %65
  %80 = load i32, ptr %11, align 4, !tbaa !10
  store i32 %80, ptr %7, align 4, !tbaa !10
  %81 = load ptr, ptr %5, align 8, !tbaa !46
  %82 = getelementptr inbounds nuw %struct.plic_context_t, ptr %81, i32 0, i32 6
  %83 = load i32, ptr %11, align 4, !tbaa !10
  %84 = zext i32 %83 to i64
  %85 = getelementptr inbounds nuw [1024 x i8], ptr %82, i64 0, i64 %84
  %86 = load i8, ptr %85, align 1, !tbaa !55
  store i8 %86, ptr %6, align 1, !tbaa !55
  br label %87

87:                                               ; preds = %79, %68
  store i32 0, ptr %9, align 4
  br label %88

88:                                               ; preds = %87, %64
  call void @llvm.lifetime.end.p0(i64 4, ptr %11) #3
  %89 = load i32, ptr %9, align 4
  switch i32 %89, label %111 [
    i32 0, label %90
    i32 7, label %91
  ]

90:                                               ; preds = %88
  br label %91

91:                                               ; preds = %90, %88
  %92 = load i32, ptr %10, align 4, !tbaa !10
  %93 = add i32 %92, 1
  store i32 %93, ptr %10, align 4, !tbaa !10
  br label %29, !llvm.loop !58

94:                                               ; preds = %32
  br label %95

95:                                               ; preds = %94, %27
  %96 = load i32, ptr %8, align 4, !tbaa !10
  %97 = add i32 %96, 1
  store i32 %97, ptr %8, align 4, !tbaa !10
  br label %13, !llvm.loop !60

98:                                               ; preds = %18
  %99 = load i8, ptr %6, align 1, !tbaa !55
  %100 = zext i8 %99 to i32
  %101 = load ptr, ptr %5, align 8, !tbaa !46
  %102 = getelementptr inbounds nuw %struct.plic_context_t, ptr %101, i32 0, i32 2
  %103 = load i8, ptr %102, align 1, !tbaa !54
  %104 = zext i8 %103 to i32
  %105 = icmp sle i32 %100, %104
  br i1 %105, label %106, label %107

106:                                              ; preds = %98
  store i32 0, ptr %3, align 4
  store i32 1, ptr %9, align 4
  br label %109

107:                                              ; preds = %98
  %108 = load i32, ptr %7, align 4, !tbaa !10
  store i32 %108, ptr %3, align 4
  store i32 1, ptr %9, align 4
  br label %109

109:                                              ; preds = %107, %106
  call void @llvm.lifetime.end.p0(i64 4, ptr %7) #3
  call void @llvm.lifetime.end.p0(i64 1, ptr %6) #3
  %110 = load i32, ptr %3, align 4
  ret i32 %110

111:                                              ; preds = %88
  unreachable
}