; Function Attrs: mustprogress nofree norecurse nosync nounwind willreturn memory(argmem: read) uwtable
define noundef i32 @_ZN6plic_t20context_best_pendingEPK14plic_context_t(ptr noundef nonnull readonly align 8 captures(none) dereferenceable(1204) %0, ptr noundef readonly captures(none) %1) local_unnamed_addr #6 align 2 {
  %3 = getelementptr inbounds nuw i8, ptr %0, i64 44
  %4 = load i32, ptr %3, align 4, !tbaa !18
  %.not47 = icmp eq i32 %4, 0
  br i1 %.not47, label %._crit_edge, label %.lr.ph

.lr.ph:                                           ; preds = %2
  %5 = getelementptr inbounds nuw i8, ptr %1, i64 140
  %6 = getelementptr inbounds nuw i8, ptr %0, i64 40
  %7 = load i32, ptr %6, align 8
  %8 = getelementptr inbounds nuw i8, ptr %1, i64 1292
  %9 = getelementptr inbounds nuw i8, ptr %1, i64 268
  %10 = zext i32 %7 to i64
  %wide.trip.count = zext i32 %4 to i64
  br label %13

._crit_edge:                                      ; preds = %.loopexit, %2
  %.029.lcssa = phi i8 [ 0, %2 ], [ %.130, %.loopexit ]
  %.028.lcssa = phi i32 [ 0, %2 ], [ %.1, %.loopexit ]
  %11 = getelementptr inbounds nuw i8, ptr %1, i64 9
  %12 = load i8, ptr %11, align 1, !tbaa !51
  %.not = icmp ugt i8 %.029.lcssa, %12
  %.028. = select i1 %.not, i32 %.028.lcssa, i32 0
  ret i32 %.028.

13:                                               ; preds = %.lr.ph, %.loopexit
  %indvars.iv48 = phi i64 [ 0, %.lr.ph ], [ %indvars.iv.next49, %.loopexit ]
  %.02844 = phi i32 [ 0, %.lr.ph ], [ %.1, %.loopexit ]
  %.02943 = phi i8 [ 0, %.lr.ph ], [ %.130, %.loopexit ]
  %14 = getelementptr inbounds nuw [32 x i32], ptr %5, i64 0, i64 %indvars.iv48
  %15 = load i32, ptr %14, align 4, !tbaa !53
  %.not35 = icmp eq i32 %15, 0
  br i1 %.not35, label %.loopexit, label %.preheader

.preheader:                                       ; preds = %13
  %16 = shl i64 %indvars.iv48, 5
  %17 = getelementptr inbounds nuw [32 x i32], ptr %8, i64 0, i64 %indvars.iv48
  %18 = and i64 %16, 4294967264
  br label %19

19:                                               ; preds = %.preheader, %._crit_edge51
  %indvars.iv = phi i64 [ 0, %.preheader ], [ %indvars.iv.next, %._crit_edge51 ]
  %.241 = phi i32 [ %.02844, %.preheader ], [ %.3, %._crit_edge51 ]
  %.23140 = phi i8 [ %.02943, %.preheader ], [ %.332, %._crit_edge51 ]
  %20 = add nuw nsw i64 %indvars.iv, %18
  %.not36 = icmp samesign ult i64 %20, %10
  br i1 %.not36, label %21, label %._crit_edge51

21:                                               ; preds = %19
  %22 = trunc nuw nsw i64 %indvars.iv to i32
  %23 = shl nuw i32 1, %22
  %24 = and i32 %23, %15
  %.not37 = icmp eq i32 %24, 0
  br i1 %.not37, label %._crit_edge51, label %25

25:                                               ; preds = %21
  %26 = load i32, ptr %17, align 4, !tbaa !53
  %27 = and i32 %26, %23
  %.not38 = icmp eq i32 %27, 0
  br i1 %.not38, label %28, label %._crit_edge51

28:                                               ; preds = %25
  %.not39 = icmp eq i32 %.241, 0
  %.phi.trans.insert = getelementptr inbounds nuw [1024 x i8], ptr %9, i64 0, i64 %20
  %.pre = load i8, ptr %.phi.trans.insert, align 1, !tbaa !32
  %29 = icmp ult i8 %.23140, %.pre
  %or.cond = select i1 %.not39, i1 true, i1 %29
  %30 = trunc nuw i64 %20 to i32
  %spec.select = select i1 %or.cond, i8 %.pre, i8 %.23140
  %spec.select52 = select i1 %or.cond, i32 %30, i32 %.241
  br label %._crit_edge51

._crit_edge51:                                    ; preds = %28, %19, %21, %25
  %.332 = phi i8 [ %.23140, %25 ], [ %.23140, %21 ], [ %.23140, %19 ], [ %spec.select, %28 ]
  %.3 = phi i32 [ %.241, %25 ], [ %.241, %21 ], [ %.241, %19 ], [ %spec.select52, %28 ]
  %indvars.iv.next = add nuw nsw i64 %indvars.iv, 1
  %exitcond.not = icmp eq i64 %indvars.iv.next, 32
  br i1 %exitcond.not, label %.loopexit, label %19, !llvm.loop !54

.loopexit:                                        ; preds = %._crit_edge51, %13
  %.130 = phi i8 [ %.02943, %13 ], [ %.332, %._crit_edge51 ]
  %.1 = phi i32 [ %.02844, %13 ], [ %.3, %._crit_edge51 ]
  %indvars.iv.next49 = add nuw nsw i64 %indvars.iv48, 1
  %exitcond50.not = icmp eq i64 %indvars.iv.next49, %wide.trip.count
  br i1 %exitcond50.not, label %._crit_edge, label %13, !llvm.loop !55
}